; Function Attrs: mustprogress uwtable
define hidden void @_ZN19OpenColorIO_v2_5dev11ADX_to_ACES11GenerateOpsERNS_10OpRcPtrVecE(ptr noundef nonnull align 8 dereferenceable(144) %0) local_unnamed_addr #3 personality ptr @__gxx_personality_v0 {
  %2 = alloca %"class.std::function", align 8
  tail call void @_ZN19OpenColorIO_v2_5dev14CreateMatrixOpERNS_10OpRcPtrVecEPKdNS_18TransformDirectionE(ptr noundef nonnull align 8 dereferenceable(144) %0, ptr noundef nonnull @_ZZN19OpenColorIO_v2_5dev11ADX_to_ACES11GenerateOpsERNS_10OpRcPtrVecEE10CDD_TO_CID, i32 noundef 0)
  %3 = getelementptr inbounds nuw i8, ptr %2, i64 16
  %4 = getelementptr inbounds nuw i8, ptr %2, i64 24
  call void @llvm.memset.p0.i64(ptr noundef nonnull align 8 dereferenceable(32) %2, i8 0, i64 16, i1 false)
  store ptr @"_ZNSt17_Function_handlerIFfdEZN19OpenColorIO_v2_5dev11ADX_to_ACES11GenerateOpsERNS1_10OpRcPtrVecEE3$_0E9_M_invokeERKSt9_Any_dataOd", ptr %4, align 8, !tbaa !22
  store ptr @"_ZNSt17_Function_handlerIFfdEZN19OpenColorIO_v2_5dev11ADX_to_ACES11GenerateOpsERNS1_10OpRcPtrVecEE3$_0E10_M_managerERSt9_Any_dataRKS7_St18_Manager_operation", ptr %3, align 8, !tbaa !25
  invoke void @_ZN19OpenColorIO_v2_5dev13CreateHalfLutERNS_10OpRcPtrVecESt8functionIFfdEE(ptr noundef nonnull align 8 dereferenceable(144) %0, ptr noundef nonnull %2)
          to label %5 unwind label %12

5:                                                ; preds = %1
  %6 = load ptr, ptr %3, align 8, !tbaa !25
  %.not.i = icmp eq ptr %6, null
  br i1 %.not.i, label %_ZNSt14_Function_baseD2Ev.exit, label %7

7:                                                ; preds = %5
  %8 = invoke noundef zeroext i1 %6(ptr noundef nonnull align 8 dereferenceable(32) %2, ptr noundef nonnull align 8 dereferenceable(32) %2, i32 noundef 3)
          to label %_ZNSt14_Function_baseD2Ev.exit unwind label %9

9:                                                ; preds = %7
  %10 = landingpad { ptr, i32 }
          catch ptr null
  %11 = extractvalue { ptr, i32 } %10, 0
  call void @__clang_call_terminate(ptr %11) #25
  unreachable

_ZNSt14_Function_baseD2Ev.exit:                   ; preds = %5, %7
  call void @_ZN19OpenColorIO_v2_5dev11CreateLogOpERNS_10OpRcPtrVecEdNS_18TransformDirectionE(ptr noundef nonnull align 8 dereferenceable(144) %0, double noundef 1.000000e+01, i32 noundef 1)
  call void @_ZN19OpenColorIO_v2_5dev14CreateMatrixOpERNS_10OpRcPtrVecEPKdNS_18TransformDirectionE(ptr noundef nonnull align 8 dereferenceable(144) %0, ptr noundef nonnull @_ZZN19OpenColorIO_v2_5dev11ADX_to_ACES11GenerateOpsERNS_10OpRcPtrVecEE11EXP_TO_ACES, i32 noundef 0)
  ret void

12:                                               ; preds = %1
  %13 = landingpad { ptr, i32 }
          cleanup
  %14 = load ptr, ptr %3, align 8, !tbaa !25
  %.not.i5 = icmp eq ptr %14, null
  br i1 %.not.i5, label %_ZNSt14_Function_baseD2Ev.exit6, label %15

15:                                               ; preds = %12
  %16 = invoke noundef zeroext i1 %14(ptr noundef nonnull align 8 dereferenceable(32) %2, ptr noundef nonnull align 8 dereferenceable(32) %2, i32 noundef 3)
          to label %_ZNSt14_Function_baseD2Ev.exit6 unwind label %17

17:                                               ; preds = %15
  %18 = landingpad { ptr, i32 }
          catch ptr null
  %19 = extractvalue { ptr, i32 } %18, 0
  call void @__clang_call_terminate(ptr %19) #25
  unreachable

_ZNSt14_Function_baseD2Ev.exit6:                  ; preds = %12, %15
  resume { ptr, i32 } %13
}